; Function Attrs: mustprogress uwtable
define { i64, i64 } @_ZN2cv6detail11PlaneWarper7warpRoiENS_5Size_IiEERKNS_11_InputArrayES6_(ptr noundef nonnull align 8 dereferenceable(168) %0, i64 %1, ptr noundef nonnull align 8 dereferenceable(24) %2, ptr noundef nonnull align 8 dereferenceable(24) %3) unnamed_addr #3 align 2 personality ptr @__gxx_personality_v0 {
  %5 = alloca %"class.cv::Point_.52", align 4
  %6 = alloca %"class.cv::Point_.52", align 4
  %7 = alloca [3 x float], align 4
  %8 = alloca %"class.cv::Mat_", align 8
  %9 = alloca %"class.cv::_InputArray", align 8
  call void @llvm.lifetime.start.p0(i64 12, ptr nonnull %7) #22
  call void @llvm.memset.p0.i64(ptr noundef nonnull align 4 dereferenceable(12) %7, i8 0, i64 12, i1 false)
  call void @llvm.lifetime.start.p0(i64 96, ptr nonnull %8) #22
  call void @_ZN2cv3MatC2EiiiPvm(ptr noundef nonnull align 8 dereferenceable(96) %8, i32 noundef 3, i32 noundef 1, i32 noundef 5, ptr noundef nonnull %7, i64 noundef 0)
  call void @llvm.lifetime.start.p0(i64 24, ptr nonnull %9) #22
  %10 = getelementptr inbounds nuw i8, ptr %9, i64 16
  store i32 0, ptr %10, align 8, !tbaa !203
  %11 = getelementptr inbounds nuw i8, ptr %9, i64 20
  store i32 0, ptr %11, align 4, !tbaa !204
  store i32 -2130640891, ptr %9, align 8, !tbaa !205
  %12 = getelementptr inbounds nuw i8, ptr %9, i64 8
  store ptr %8, ptr %12, align 8, !tbaa !160
  %13 = getelementptr inbounds nuw i8, ptr %0, i64 8
  invoke void @_ZN2cv6detail13ProjectorBase15setCameraParamsERKNS_11_InputArrayES4_S4_(ptr noundef nonnull align 4 dereferenceable(160) %13, ptr noundef nonnull align 8 dereferenceable(24) %2, ptr noundef nonnull align 8 dereferenceable(24) %3, ptr noundef nonnull align 8 dereferenceable(24) %9)
          to label %.noexc unwind label %32

.noexc:                                           ; preds = %4
  call void @llvm.lifetime.start.p0(i64 8, ptr nonnull %5) #22
  store i32 0, ptr %5, align 4, !tbaa !206
  %14 = getelementptr inbounds nuw i8, ptr %5, i64 4
  store i32 0, ptr %14, align 4, !tbaa !208
  call void @llvm.lifetime.start.p0(i64 8, ptr nonnull %6) #22
  store i32 0, ptr %6, align 4, !tbaa !206
  %15 = getelementptr inbounds nuw i8, ptr %6, i64 4
  store i32 0, ptr %15, align 4, !tbaa !208
  %16 = load ptr, ptr %0, align 8, !tbaa !14
  %17 = getelementptr inbounds nuw i8, ptr %16, i64 80
  %18 = load ptr, ptr %17, align 8
  invoke void %18(ptr noundef nonnull align 8 dereferenceable(168) %0, i64 %1, ptr noundef nonnull align 4 dereferenceable(8) %5, ptr noundef nonnull align 4 dereferenceable(8) %6)
          to label %19 unwind label %32

19:                                               ; preds = %.noexc
  %20 = load i32, ptr %6, align 4, !tbaa !206
  %21 = add nsw i32 %20, 1
  %22 = load i32, ptr %15, align 4, !tbaa !208
  %23 = add nsw i32 %22, 1
  %24 = load i32, ptr %5, align 4, !tbaa !23
  %25 = call i32 @llvm.smin.i32(i32 %21, i32 %24)
  %26 = load i32, ptr %14, align 4, !tbaa !23
  %27 = call i32 @llvm.smin.i32(i32 %23, i32 %26)
  %28 = call i32 @llvm.smax.i32(i32 %24, i32 %21)
  %29 = sub nsw i32 %28, %25
  %30 = call i32 @llvm.smax.i32(i32 %26, i32 %23)
  %31 = sub nsw i32 %30, %27
  call void @llvm.lifetime.end.p0(i64 8, ptr nonnull %6) #22
  call void @llvm.lifetime.end.p0(i64 8, ptr nonnull %5) #22
  %.sroa.2.0.insert.ext.i = zext i32 %27 to i64
  %.sroa.2.0.insert.shift.i = shl nuw i64 %.sroa.2.0.insert.ext.i, 32
  %.sroa.07.0.insert.ext.i = zext i32 %25 to i64
  %.sroa.07.0.insert.insert.i = or disjoint i64 %.sroa.2.0.insert.shift.i, %.sroa.07.0.insert.ext.i
  %.fca.0.insert.i = insertvalue { i64, i64 } poison, i64 %.sroa.07.0.insert.insert.i, 0
  %.sroa.58.8.insert.ext.i = zext i32 %31 to i64
  %.sroa.58.8.insert.shift.i = shl nuw i64 %.sroa.58.8.insert.ext.i, 32
  %.sroa.3.8.insert.ext.i = zext i32 %29 to i64
  %.sroa.3.8.insert.insert.i = or disjoint i64 %.sroa.58.8.insert.shift.i, %.sroa.3.8.insert.ext.i
  %.fca.1.insert.i = insertvalue { i64, i64 } %.fca.0.insert.i, i64 %.sroa.3.8.insert.insert.i, 1
  call void @llvm.lifetime.end.p0(i64 24, ptr nonnull %9) #22
  call void @_ZN2cv3MatD2Ev(ptr noundef nonnull align 8 dereferenceable(96) %8) #22
  call void @llvm.lifetime.end.p0(i64 96, ptr nonnull %8) #22
  call void @llvm.lifetime.end.p0(i64 12, ptr nonnull %7) #22
  ret { i64, i64 } %.fca.1.insert.i

32:                                               ; preds = %.noexc, %4
  %33 = landingpad { ptr, i32 }
          cleanup
  call void @llvm.lifetime.end.p0(i64 24, ptr nonnull %9) #22
  call void @_ZN2cv3MatD2Ev(ptr noundef nonnull align 8 dereferenceable(96) %8) #22
  call void @llvm.lifetime.end.p0(i64 96, ptr nonnull %8) #22
  call void @llvm.lifetime.end.p0(i64 12, ptr nonnull %7) #22
  resume { ptr, i32 } %33
}